target datalayout = "e-m:e-p270:32:32-p271:32:32-p272:64:64-i64:64-i128:128-f80:128-n8:16:32:64-S128"
target triple = "x86_64-pc-linux-gnu"

%"class.llvm::Register" = type { i32 }
%"class.llvm::MCRegister" = type { i32 }
%"class.llvm::MachineOperand" = type { i32, %union.anon.285, ptr, %"union.llvm::MachineOperand::ContentsUnion" }
%union.anon.285 = type { i32 }
%"union.llvm::MachineOperand::ContentsUnion" = type { %"class.llvm::ArrayRef.286" }
%"class.llvm::ArrayRef.286" = type { ptr, i64 }
%"class.llvm::MachineInstrBuilder" = type { ptr, ptr }
%struct.anon = type { ptr, ptr }

; Function Attrs: mustprogress nounwind uwtable
define linkonce_odr hidden void @_ZN4llvm14MachineOperand13ContentsUnionC2Ev(ptr noundef nonnull align 8 dereferenceable(16) %0) unnamed_addr #0 comdat align 2 {
  %2 = alloca ptr, align 8
  store ptr %0, ptr %2, align 8
  ret void
}

; Function Attrs: mustprogress nounwind uwtable
define linkonce_odr hidden void @_ZN4llvm14MachineOperand9setSubRegEj(ptr noundef nonnull align 8 dereferenceable(32) %0, i32 noundef %1) #0 comdat align 2 {
  %3 = alloca ptr, align 8
  %4 = alloca i32, align 4
  store ptr %0, ptr %3, align 8
  store i32 %1, ptr %4, align 4
  %5 = load ptr, ptr %3, align 8
  %6 = load i32, ptr %4, align 4
  %7 = load i32, ptr %5, align 8
  %8 = and i32 %6, 4095
  %9 = shl i32 %8, 8
  %10 = and i32 %7, -1048321
  %11 = or i32 %10, %9
  store i32 %11, ptr %5, align 8
  ret void
}

; Function Attrs: mustprogress nounwind uwtable
define linkonce_odr hidden noundef i32 @_ZNK4llvm8RegistercvjEv(ptr noundef nonnull align 4 dereferenceable(4) %0) #0 comdat align 2 {
  %2 = alloca ptr, align 8
  store ptr %0, ptr %2, align 8
  %3 = load ptr, ptr %2, align 8
  %4 = getelementptr inbounds nuw %"class.llvm::Register", ptr %3, i32 0, i32 0
  %5 = load i32, ptr %4, align 4
  ret i32 %5
}

; Function Attrs: mustprogress nounwind uwtable
define linkonce_odr hidden void @_ZN4llvm14MachineOperandC2ENS0_18MachineOperandTypeE(ptr noundef nonnull align 8 dereferenceable(32) %0, i8 noundef zeroext %1) unnamed_addr #0 comdat align 2 {
  %3 = alloca ptr, align 8
  %4 = alloca i8, align 1
  store ptr %0, ptr %3, align 8
  store i8 %1, ptr %4, align 1
  %5 = load ptr, ptr %3, align 8
  %6 = load i8, ptr %4, align 1
  %7 = zext i8 %6 to i32
  %8 = load i32, ptr %5, align 8
  %9 = and i32 %7, 255
  %10 = and i32 %8, -256
  %11 = or i32 %10, %9
  store i32 %11, ptr %5, align 8
  %12 = load i32, ptr %5, align 8
  %13 = and i32 %12, -1048321
  %14 = or i32 %13, 0
  store i32 %14, ptr %5, align 8
  %15 = getelementptr inbounds nuw %"class.llvm::MachineOperand", ptr %5, i32 0, i32 2
  store ptr null, ptr %15, align 8
  %16 = getelementptr inbounds nuw %"class.llvm::MachineOperand", ptr %5, i32 0, i32 3
  call void @_ZN4llvm14MachineOperand13ContentsUnionC2Ev(ptr noundef nonnull align 8 dereferenceable(16) %16)
  ret void
}

; Function Attrs: mustprogress nounwind uwtable
define linkonce_odr hidden noundef zeroext i1 @_ZN4llvm10MCRegister18isPhysicalRegisterEj(i32 noundef %0) #0 comdat align 2 {
  %2 = alloca i32, align 4
  store i32 %0, ptr %2, align 4
  %3 = load i32, ptr %2, align 4
  %4 = icmp ule i32 1, %3
  br i1 %4, label %5, label %8

5:                                                ; preds = %1
  %6 = load i32, ptr %2, align 4
  %7 = icmp ult i32 %6, 1073741824
  br label %8

8:                                                ; preds = %5, %1
  %9 = phi i1 [ false, %1 ], [ %7, %5 ]
  ret i1 %9
}

; Function Attrs: mustprogress nounwind uwtable
define linkonce_odr hidden void @_ZN4llvm14MachineOperand9CreateRegENS_8RegisterEbbbbbbjbbb(ptr dead_on_unwind noalias writable sret(%"class.llvm::MachineOperand") align 8 %0, i32 %1, i1 noundef zeroext %2, i1 noundef zeroext %3, i1 noundef zeroext %4, i1 noundef zeroext %5, i1 noundef zeroext %6, i1 noundef zeroext %7, i32 noundef %8, i1 noundef zeroext %9, i1 noundef zeroext %10, i1 noundef zeroext %11) #0 comdat align 2 {
  %13 = alloca %"class.llvm::Register", align 4
  %14 = alloca i8, align 1
  %15 = alloca i8, align 1
  %16 = alloca i8, align 1
  %17 = alloca i8, align 1
  %18 = alloca i8, align 1
  %19 = alloca i8, align 1
  %20 = alloca i32, align 4
  %21 = alloca i8, align 1
  %22 = alloca i8, align 1
  %23 = alloca i8, align 1
  %24 = getelementptr inbounds nuw %"class.llvm::Register", ptr %13, i32 0, i32 0
  store i32 %1, ptr %24, align 4
  %25 = zext i1 %2 to i8
  store i8 %25, ptr %14, align 1
  %26 = zext i1 %3 to i8
  store i8 %26, ptr %15, align 1
  %27 = zext i1 %4 to i8
  store i8 %27, ptr %16, align 1
  %28 = zext i1 %5 to i8
  store i8 %28, ptr %17, align 1
  %29 = zext i1 %6 to i8
  store i8 %29, ptr %18, align 1
  %30 = zext i1 %7 to i8
  store i8 %30, ptr %19, align 1
  store i32 %8, ptr %20, align 4
  %31 = zext i1 %9 to i8
  store i8 %31, ptr %21, align 1
  %32 = zext i1 %10 to i8
  store i8 %32, ptr %22, align 1
  %33 = zext i1 %11 to i8
  store i8 %33, ptr %23, align 1
  call void @_ZN4llvm14MachineOperandC2ENS0_18MachineOperandTypeE(ptr noundef nonnull align 8 dereferenceable(32) %0, i8 noundef zeroext 0)
  %34 = load i8, ptr %14, align 1
  %35 = trunc i8 %34 to i1
  %36 = zext i1 %35 to i32
  %37 = load i32, ptr %0, align 8
  %38 = and i32 %36, 1
  %39 = shl i32 %38, 24
  %40 = and i32 %37, -16777217
  %41 = or i32 %40, %39
  store i32 %41, ptr %0, align 8
  %42 = load i8, ptr %15, align 1
  %43 = trunc i8 %42 to i1
  %44 = zext i1 %43 to i32
  %45 = load i32, ptr %0, align 8
  %46 = and i32 %44, 1
  %47 = shl i32 %46, 25
  %48 = and i32 %45, -33554433
  %49 = or i32 %48, %47
  store i32 %49, ptr %0, align 8
  %50 = load i8, ptr %16, align 1
  %51 = trunc i8 %50 to i1
  %52 = zext i1 %51 to i32
  %53 = load i8, ptr %17, align 1
  %54 = trunc i8 %53 to i1
  %55 = zext i1 %54 to i32
  %56 = or i32 %52, %55
  %57 = load i32, ptr %0, align 8
  %58 = and i32 %56, 1
  %59 = shl i32 %58, 26
  %60 = and i32 %57, -67108865
  %61 = or i32 %60, %59
  store i32 %61, ptr %0, align 8
  %62 = load i8, ptr %23, align 1
  %63 = trunc i8 %62 to i1
  %64 = zext i1 %63 to i32
  %65 = load i32, ptr %0, align 8
  %66 = and i32 %64, 1
  %67 = shl i32 %66, 27
  %68 = and i32 %65, -134217729
  %69 = or i32 %68, %67
  store i32 %69, ptr %0, align 8
  %70 = load i8, ptr %18, align 1
  %71 = trunc i8 %70 to i1
  %72 = zext i1 %71 to i32
  %73 = load i32, ptr %0, align 8
  %74 = and i32 %72, 1
  %75 = shl i32 %74, 28
  %76 = and i32 %73, -268435457
  %77 = or i32 %76, %75
  store i32 %77, ptr %0, align 8
  %78 = load i8, ptr %22, align 1
  %79 = trunc i8 %78 to i1
  %80 = zext i1 %79 to i32
  %81 = load i32, ptr %0, align 8
  %82 = and i32 %80, 1
  %83 = shl i32 %82, 29
  %84 = and i32 %81, -536870913
  %85 = or i32 %84, %83
  store i32 %85, ptr %0, align 8
  %86 = load i8, ptr %19, align 1
  %87 = trunc i8 %86 to i1
  %88 = zext i1 %87 to i32
  %89 = load i32, ptr %0, align 8
  %90 = and i32 %88, 1
  %91 = shl i32 %90, 30
  %92 = and i32 %89, -1073741825
  %93 = or i32 %92, %91
  store i32 %93, ptr %0, align 8
  %94 = load i32, ptr %0, align 8
  %95 = and i32 %94, -15728641
  %96 = or i32 %95, 0
  store i32 %96, ptr %0, align 8
  %97 = load i8, ptr %21, align 1
  %98 = trunc i8 %97 to i1
  %99 = zext i1 %98 to i32
  %100 = load i32, ptr %0, align 8
  %101 = and i32 %99, 1
  %102 = shl i32 %101, 31
  %103 = and i32 %100, 2147483647
  %104 = or i32 %103, %102
  store i32 %104, ptr %0, align 8
  %105 = call noundef i32 @_ZNK4llvm8RegistercvjEv(ptr noundef nonnull align 4 dereferenceable(4) %13)
  %106 = getelementptr inbounds nuw %"class.llvm::MachineOperand", ptr %0, i32 0, i32 1
  store i32 %105, ptr %106, align 4
  %107 = getelementptr inbounds nuw %"class.llvm::MachineOperand", ptr %0, i32 0, i32 3
  %108 = getelementptr inbounds nuw %struct.anon, ptr %107, i32 0, i32 0
  store ptr null, ptr %108, align 8
  %109 = getelementptr inbounds nuw %"class.llvm::MachineOperand", ptr %0, i32 0, i32 3
  %110 = getelementptr inbounds nuw %struct.anon, ptr %109, i32 0, i32 1
  store ptr null, ptr %110, align 8
  %111 = load i32, ptr %20, align 4
  call void @_ZN4llvm14MachineOperand9setSubRegEj(ptr noundef nonnull align 8 dereferenceable(32) %0, i32 noundef %111)
  ret void
}

; Function Attrs: mustprogress nounwind uwtable
define linkonce_odr hidden i32 @_ZNK4llvm18TargetRegisterInfo9getSubRegENS_10MCRegisterEj(ptr noundef nonnull align 8 dereferenceable(308) %0, i32 %1, i32 noundef %2) #0 comdat align 2 {
  %4 = alloca %"class.llvm::MCRegister", align 4
  %5 = alloca %"class.llvm::MCRegister", align 4
  %6 = alloca ptr, align 8
  %7 = alloca i32, align 4
  %8 = alloca %"class.llvm::MCRegister", align 4
  %9 = getelementptr inbounds nuw %"class.llvm::MCRegister", ptr %5, i32 0, i32 0
  store i32 %1, ptr %9, align 4
  store ptr %0, ptr %6, align 8
  store i32 %2, ptr %7, align 4
  %10 = load ptr, ptr %6, align 8
  %11 = getelementptr inbounds i8, ptr %10, i64 8
  call void @llvm.memcpy.p0.p0.i64(ptr align 4 %8, ptr align 4 %5, i64 4, i1 false)
  %12 = load i32, ptr %7, align 4
  %13 = getelementptr inbounds nuw %"class.llvm::MCRegister", ptr %8, i32 0, i32 0
  %14 = load i32, ptr %13, align 4
  %15 = call i32 @_ZNK4llvm14MCRegisterInfo9getSubRegENS_10MCRegisterEj(ptr noundef nonnull align 8 dereferenceable(224) %11, i32 %14, i32 noundef %12)
  %16 = getelementptr inbounds nuw %"class.llvm::MCRegister", ptr %4, i32 0, i32 0
  store i32 %15, ptr %16, align 4
  %17 = getelementptr inbounds nuw %"class.llvm::MCRegister", ptr %4, i32 0, i32 0
  %18 = load i32, ptr %17, align 4
  ret i32 %18
}

; Function Attrs: mustprogress nounwind uwtable
define linkonce_odr hidden noundef zeroext i1 @_ZN4llvm8Register18isPhysicalRegisterEj(i32 noundef %0) #0 comdat align 2 {
  %2 = alloca i32, align 4
  store i32 %0, ptr %2, align 4
  %3 = load i32, ptr %2, align 4
  %4 = call noundef zeroext i1 @_ZN4llvm10MCRegister18isPhysicalRegisterEj(i32 noundef %3)
  ret i1 %4
}

; Function Attrs: mustprogress nounwind uwtable
define linkonce_odr hidden noundef i32 @_ZNK4llvm10MCRegistercvjEv(ptr noundef nonnull align 4 dereferenceable(4) %0) #0 comdat align 2 {
  %2 = alloca ptr, align 8
  store ptr %0, ptr %2, align 8
  %3 = load ptr, ptr %2, align 8
  %4 = getelementptr inbounds nuw %"class.llvm::MCRegister", ptr %3, i32 0, i32 0
  %5 = load i32, ptr %4, align 4
  ret i32 %5
}

; Function Attrs: mustprogress nounwind uwtable
define linkonce_odr hidden noundef nonnull align 8 dereferenceable(16) ptr @_ZNK4llvm19MachineInstrBuilder6addRegENS_8RegisterEjj(ptr noundef nonnull align 8 dereferenceable(16) %0, i32 %1, i32 noundef %2, i32 noundef %3) #0 comdat align 2 {
  %5 = alloca %"class.llvm::Register", align 4
  %6 = alloca ptr, align 8
  %7 = alloca i32, align 4
  %8 = alloca i32, align 4
  %9 = alloca %"class.llvm::MachineOperand", align 8
  %10 = alloca %"class.llvm::Register", align 4
  %11 = getelementptr inbounds nuw %"class.llvm::Register", ptr %5, i32 0, i32 0
  store i32 %1, ptr %11, align 4
  store ptr %0, ptr %6, align 8
  store i32 %2, ptr %7, align 4
  store i32 %3, ptr %8, align 4
  %12 = load ptr, ptr %6, align 8
  %13 = getelementptr inbounds nuw %"class.llvm::MachineInstrBuilder", ptr %12, i32 0, i32 1
  %14 = load ptr, ptr %13, align 8
  %15 = getelementptr inbounds nuw %"class.llvm::MachineInstrBuilder", ptr %12, i32 0, i32 0
  %16 = load ptr, ptr %15, align 8
  call void @llvm.memcpy.p0.p0.i64(ptr align 4 %10, ptr align 4 %5, i64 4, i1 false)
  %17 = load i32, ptr %7, align 4
  %18 = and i32 %17, 2
  %19 = icmp ne i32 %18, 0
  %20 = load i32, ptr %7, align 4
  %21 = and i32 %20, 4
  %22 = icmp ne i32 %21, 0
  %23 = load i32, ptr %7, align 4
  %24 = and i32 %23, 8
  %25 = icmp ne i32 %24, 0
  %26 = load i32, ptr %7, align 4
  %27 = and i32 %26, 16
  %28 = icmp ne i32 %27, 0
  %29 = load i32, ptr %7, align 4
  %30 = and i32 %29, 32
  %31 = icmp ne i32 %30, 0
  %32 = load i32, ptr %7, align 4
  %33 = and i32 %32, 64
  %34 = icmp ne i32 %33, 0
  %35 = load i32, ptr %8, align 4
  %36 = load i32, ptr %7, align 4
  %37 = and i32 %36, 128
  %38 = icmp ne i32 %37, 0
  %39 = load i32, ptr %7, align 4
  %40 = and i32 %39, 256
  %41 = icmp ne i32 %40, 0
  %42 = load i32, ptr %7, align 4
  %43 = and i32 %42, 512
  %44 = icmp ne i32 %43, 0
  %45 = getelementptr inbounds nuw %"class.llvm::Register", ptr %10, i32 0, i32 0
  %46 = load i32, ptr %45, align 4
  call void @_ZN4llvm14MachineOperand9CreateRegENS_8RegisterEbbbbbbjbbb(ptr dead_on_unwind writable sret(%"class.llvm::MachineOperand") align 8 %9, i32 %46, i1 noundef zeroext %19, i1 noundef zeroext %22, i1 noundef zeroext %25, i1 noundef zeroext %28, i1 noundef zeroext %31, i1 noundef zeroext %34, i32 noundef %35, i1 noundef zeroext %38, i1 noundef zeroext %41, i1 noundef zeroext %44)
  call void @_ZN4llvm12MachineInstr10addOperandERNS_15MachineFunctionERKNS_14MachineOperandE(ptr noundef nonnull align 8 dereferenceable(70) %14, ptr noundef nonnull align 8 dereferenceable(1041) %16, ptr noundef nonnull align 8 dereferenceable(32) %9)
  ret ptr %12
}

; Function Attrs: mustprogress nounwind uwtable
define linkonce_odr hidden void @_ZN4llvm8RegisterC2ENS_10MCRegisterE(ptr noundef nonnull align 4 dereferenceable(4) %0, i32 %1) unnamed_addr #0 comdat align 2 {
  %3 = alloca %"class.llvm::MCRegister", align 4
  %4 = alloca ptr, align 8
  %5 = getelementptr inbounds nuw %"class.llvm::MCRegister", ptr %3, i32 0, i32 0
  store i32 %1, ptr %5, align 4
  store ptr %0, ptr %4, align 8
  %6 = load ptr, ptr %4, align 8
  %7 = getelementptr inbounds nuw %"class.llvm::Register", ptr %6, i32 0, i32 0
  %8 = call noundef i32 @_ZNK4llvm10MCRegistercvjEv(ptr noundef nonnull align 4 dereferenceable(4) %3)
  store i32 %8, ptr %7, align 4
  ret void
}

; Function Attrs: mustprogress nounwind uwtable
define internal noundef nonnull align 8 dereferenceable(16) ptr @_ZL9AddSubRegRKN4llvm19MachineInstrBuilderENS_10MCRegisterEjjPKNS_18TargetRegisterInfoE(ptr noundef nonnull align 8 dereferenceable(16) %0, i32 %1, i32 noundef %2, i32 noundef %3, ptr noundef %4) #0 {
  %6 = alloca ptr, align 8
  %7 = alloca %"class.llvm::MCRegister", align 4
  %8 = alloca ptr, align 8
  %9 = alloca i32, align 4
  %10 = alloca i32, align 4
  %11 = alloca ptr, align 8
  %12 = alloca %"class.llvm::Register", align 4
  %13 = alloca %"class.llvm::MCRegister", align 4
  %14 = alloca %"class.llvm::Register", align 4
  %15 = alloca %"class.llvm::MCRegister", align 4
  %16 = alloca %"class.llvm::MCRegister", align 4
  %17 = alloca %"class.llvm::Register", align 4
  %18 = alloca %"class.llvm::MCRegister", align 4
  %19 = getelementptr inbounds nuw %"class.llvm::MCRegister", ptr %7, i32 0, i32 0
  store i32 %1, ptr %19, align 4
  store ptr %0, ptr %8, align 8
  store i32 %2, ptr %9, align 4
  store i32 %3, ptr %10, align 4
  store ptr %4, ptr %11, align 8
  %20 = load i32, ptr %9, align 4
  %21 = icmp ne i32 %20, 0
  br i1 %21, label %30, label %22

22:                                               ; preds = %5
  %23 = load ptr, ptr %8, align 8
  call void @llvm.memcpy.p0.p0.i64(ptr align 4 %13, ptr align 4 %7, i64 4, i1 false)
  %24 = getelementptr inbounds nuw %"class.llvm::MCRegister", ptr %13, i32 0, i32 0
  %25 = load i32, ptr %24, align 4
  call void @_ZN4llvm8RegisterC2ENS_10MCRegisterE(ptr noundef nonnull align 4 dereferenceable(4) %12, i32 %25)
  %26 = load i32, ptr %10, align 4
  %27 = getelementptr inbounds nuw %"class.llvm::Register", ptr %12, i32 0, i32 0
  %28 = load i32, ptr %27, align 4
  %29 = call noundef nonnull align 8 dereferenceable(16) ptr @_ZNK4llvm19MachineInstrBuilder6addRegENS_8RegisterEjj(ptr noundef nonnull align 8 dereferenceable(16) %23, i32 %28, i32 noundef %26, i32 noundef 0)
  store ptr %29, ptr %6, align 8
  br label %56

30:                                               ; preds = %5
  %31 = call noundef i32 @_ZNK4llvm10MCRegistercvjEv(ptr noundef nonnull align 4 dereferenceable(4) %7)
  %32 = call noundef zeroext i1 @_ZN4llvm8Register18isPhysicalRegisterEj(i32 noundef %31)
  br i1 %32, label %33, label %47

33:                                               ; preds = %30
  %34 = load ptr, ptr %8, align 8
  %35 = load ptr, ptr %11, align 8
  call void @llvm.memcpy.p0.p0.i64(ptr align 4 %16, ptr align 4 %7, i64 4, i1 false)
  %36 = load i32, ptr %9, align 4
  %37 = getelementptr inbounds nuw %"class.llvm::MCRegister", ptr %16, i32 0, i32 0
  %38 = load i32, ptr %37, align 4
  %39 = call i32 @_ZNK4llvm18TargetRegisterInfo9getSubRegENS_10MCRegisterEj(ptr noundef nonnull align 8 dereferenceable(308) %35, i32 %38, i32 noundef %36)
  %40 = getelementptr inbounds nuw %"class.llvm::MCRegister", ptr %15, i32 0, i32 0
  store i32 %39, ptr %40, align 4
  %41 = getelementptr inbounds nuw %"class.llvm::MCRegister", ptr %15, i32 0, i32 0
  %42 = load i32, ptr %41, align 4
  call void @_ZN4llvm8RegisterC2ENS_10MCRegisterE(ptr noundef nonnull align 4 dereferenceable(4) %14, i32 %42)
  %43 = load i32, ptr %10, align 4
  %44 = getelementptr inbounds nuw %"class.llvm::Register", ptr %14, i32 0, i32 0
  %45 = load i32, ptr %44, align 4
  %46 = call noundef nonnull align 8 dereferenceable(16) ptr @_ZNK4llvm19MachineInstrBuilder6addRegENS_8RegisterEjj(ptr noundef nonnull align 8 dereferenceable(16) %34, i32 %45, i32 noundef %43, i32 noundef 0)
  store ptr %46, ptr %6, align 8
  br label %56

47:                                               ; preds = %30
  %48 = load ptr, ptr %8, align 8
  call void @llvm.memcpy.p0.p0.i64(ptr align 4 %18, ptr align 4 %7, i64 4, i1 false)
  %49 = getelementptr inbounds nuw %"class.llvm::MCRegister", ptr %18, i32 0, i32 0
  %50 = load i32, ptr %49, align 4
  call void @_ZN4llvm8RegisterC2ENS_10MCRegisterE(ptr noundef nonnull align 4 dereferenceable(4) %17, i32 %50)
  %51 = load i32, ptr %10, align 4
  %52 = load i32, ptr %9, align 4
  %53 = getelementptr inbounds nuw %"class.llvm::Register", ptr %17, i32 0, i32 0
  %54 = load i32, ptr %53, align 4
  %55 = call noundef nonnull align 8 dereferenceable(16) ptr @_ZNK4llvm19MachineInstrBuilder6addRegENS_8RegisterEjj(ptr noundef nonnull align 8 dereferenceable(16) %48, i32 %54, i32 noundef %51, i32 noundef %52)
  store ptr %55, ptr %6, align 8
  br label %56

56:                                               ; preds = %47, %33, %22
  %57 = load ptr, ptr %6, align 8
  ret ptr %57
}