; Function Attrs: mustprogress nounwind uwtable
define internal fastcc noundef nonnull align 8 dereferenceable(16) ptr @_ZL9AddSubRegRKN4llvm19MachineInstrBuilderENS_10MCRegisterEjjPKNS_18TargetRegisterInfoE(ptr noundef nonnull readonly returned align 8 dereferenceable(16) %0, i32 %1, i32 noundef %2, i32 noundef %3, ptr noundef %4) unnamed_addr #1 {
  %6 = alloca %"class.llvm::MachineOperand", align 8
  %7 = alloca %"class.llvm::MachineOperand", align 8
  %8 = alloca %"class.llvm::MachineOperand", align 8
  %.not = icmp eq i32 %2, 0
  br i1 %.not, label %9, label %27

9:                                                ; preds = %5
  call void @llvm.lifetime.start.p0(i64 32, ptr nonnull %8)
  %10 = getelementptr inbounds nuw i8, ptr %0, i64 8
  %11 = load ptr, ptr %10, align 8
  %12 = load ptr, ptr %0, align 8
  %13 = getelementptr inbounds nuw i8, ptr %8, i64 8
  store ptr null, ptr %13, align 8, !alias.scope !372
  %14 = shl i32 %3, 23
  %15 = and i32 %3, 24
  %.not.i = icmp eq i32 %15, 0
  %16 = select i1 %.not.i, i32 0, i32 67108864
  %17 = shl i32 %3, 18
  %18 = and i32 %17, 134217728
  %19 = shl i32 %3, 21
  %20 = and i32 %19, 536870912
  %21 = shl i32 %3, 24
  %22 = getelementptr inbounds nuw i8, ptr %8, i64 4
  store i32 %1, ptr %22, align 4, !alias.scope !372
  %23 = getelementptr inbounds nuw i8, ptr %8, i64 16
  %24 = and i32 %14, 318767104
  %25 = and i32 %21, -1073741824
  %.masked.masked.masked.i.i = or disjoint i32 %24, %25
  %.masked11.masked.i.i = or disjoint i32 %.masked.masked.masked.i.i, %20
  %.masked.i.i = or disjoint i32 %.masked11.masked.i.i, %18
  %26 = or disjoint i32 %.masked.i.i, %16
  call void @llvm.memset.p0.i64(ptr noundef nonnull align 8 dereferenceable(16) %23, i8 0, i64 16, i1 false), !alias.scope !372
  store i32 %26, ptr %8, align 8, !alias.scope !372
  call void @_ZN4llvm12MachineInstr10addOperandERNS_15MachineFunctionERKNS_14MachineOperandE(ptr noundef nonnull align 8 dereferenceable(70) %11, ptr noundef nonnull align 8 dereferenceable(1041) %12, ptr noundef nonnull align 8 dereferenceable(32) %8) #27
  call void @llvm.lifetime.end.p0(i64 32, ptr nonnull %8)
  br label %71

27:                                               ; preds = %5
  %28 = add i32 %1, -1
  %29 = icmp ult i32 %28, 1073741823
  br i1 %29, label %30, label %50

30:                                               ; preds = %27
  %31 = getelementptr inbounds i8, ptr %4, i64 8
  %32 = tail call i32 @_ZNK4llvm14MCRegisterInfo9getSubRegENS_10MCRegisterEj(ptr noundef nonnull align 8 dereferenceable(224) %31, i32 %1, i32 noundef %2) #27
  call void @llvm.lifetime.start.p0(i64 32, ptr nonnull %7)
  %33 = getelementptr inbounds nuw i8, ptr %0, i64 8
  %34 = load ptr, ptr %33, align 8
  %35 = load ptr, ptr %0, align 8
  %36 = getelementptr inbounds nuw i8, ptr %7, i64 8
  store ptr null, ptr %36, align 8, !alias.scope !375
  %37 = shl i32 %3, 23
  %38 = and i32 %3, 24
  %.not.i14 = icmp eq i32 %38, 0
  %39 = select i1 %.not.i14, i32 0, i32 67108864
  %40 = shl i32 %3, 18
  %41 = and i32 %40, 134217728
  %42 = shl i32 %3, 21
  %43 = and i32 %42, 536870912
  %44 = shl i32 %3, 24
  %45 = getelementptr inbounds nuw i8, ptr %7, i64 4
  store i32 %32, ptr %45, align 4, !alias.scope !375
  %46 = getelementptr inbounds nuw i8, ptr %7, i64 16
  %47 = and i32 %37, 318767104
  %48 = and i32 %44, -1073741824
  %.masked.masked.masked.i.i15 = or disjoint i32 %47, %48
  %.masked11.masked.i.i16 = or disjoint i32 %.masked.masked.masked.i.i15, %43
  %.masked.i.i17 = or disjoint i32 %.masked11.masked.i.i16, %41
  %49 = or disjoint i32 %.masked.i.i17, %39
  call void @llvm.memset.p0.i64(ptr noundef nonnull align 8 dereferenceable(16) %46, i8 0, i64 16, i1 false), !alias.scope !375
  store i32 %49, ptr %7, align 8, !alias.scope !375
  call void @_ZN4llvm12MachineInstr10addOperandERNS_15MachineFunctionERKNS_14MachineOperandE(ptr noundef nonnull align 8 dereferenceable(70) %34, ptr noundef nonnull align 8 dereferenceable(1041) %35, ptr noundef nonnull align 8 dereferenceable(32) %7) #27
  call void @llvm.lifetime.end.p0(i64 32, ptr nonnull %7)
  br label %71

50:                                               ; preds = %27
  call void @llvm.lifetime.start.p0(i64 32, ptr nonnull %6)
  %51 = getelementptr inbounds nuw i8, ptr %0, i64 8
  %52 = load ptr, ptr %51, align 8
  %53 = load ptr, ptr %0, align 8
  %54 = getelementptr inbounds nuw i8, ptr %6, i64 8
  store ptr null, ptr %54, align 8, !alias.scope !378
  %55 = shl i32 %3, 23
  %56 = and i32 %3, 24
  %.not.i18 = icmp eq i32 %56, 0
  %57 = select i1 %.not.i18, i32 0, i32 67108864
  %58 = shl i32 %3, 18
  %59 = and i32 %58, 134217728
  %60 = shl i32 %3, 21
  %61 = and i32 %60, 536870912
  %62 = shl i32 %3, 24
  %63 = getelementptr inbounds nuw i8, ptr %6, i64 4
  store i32 %1, ptr %63, align 4, !alias.scope !378
  %64 = getelementptr inbounds nuw i8, ptr %6, i64 16
  %65 = shl i32 %2, 8
  %66 = and i32 %65, 1048320
  %67 = and i32 %55, 318767104
  %68 = and i32 %62, -1073741824
  %.masked.masked.masked.i.i19 = or disjoint i32 %68, %66
  %.masked11.masked.i.i20 = or disjoint i32 %.masked.masked.masked.i.i19, %67
  %.masked.i.i21 = or disjoint i32 %.masked11.masked.i.i20, %61
  %69 = or disjoint i32 %.masked.i.i21, %59
  %70 = or disjoint i32 %69, %57
  call void @llvm.memset.p0.i64(ptr noundef nonnull align 8 dereferenceable(16) %64, i8 0, i64 16, i1 false), !alias.scope !378
  store i32 %70, ptr %6, align 8, !alias.scope !378
  call void @_ZN4llvm12MachineInstr10addOperandERNS_15MachineFunctionERKNS_14MachineOperandE(ptr noundef nonnull align 8 dereferenceable(70) %52, ptr noundef nonnull align 8 dereferenceable(1041) %53, ptr noundef nonnull align 8 dereferenceable(32) %6) #27
  call void @llvm.lifetime.end.p0(i64 32, ptr nonnull %6)
  br label %71

71:                                               ; preds = %50, %30, %9
  ret ptr %0
}